target datalayout = "e-m:e-p270:32:32-p271:32:32-p272:64:64-i64:64-i128:128-f80:128-n8:16:32:64-S128"
target triple = "x86_64-pc-linux-gnu"

%"class.pxrInternal_v0_24__pxrReserved__::GfMatrix4d" = type { %"class.pxrInternal_v0_24__pxrReserved__::GfMatrixData" }
%"class.pxrInternal_v0_24__pxrReserved__::GfMatrixData" = type { [16 x double] }

; Function Attrs: mustprogress nounwind uwtable
define linkonce_odr noundef ptr @_ZNK32pxrInternal_v0_24__pxrReserved__12GfMatrixDataIdLi4ELi4EEixEi(ptr noundef nonnull align 8 dereferenceable(128) %0, i32 noundef %1) #2 comdat align 2 {
  %3 = alloca ptr, align 8
  %4 = alloca i32, align 4
  store ptr %0, ptr %3, align 8
  store i32 %1, ptr %4, align 4
  %5 = load ptr, ptr %3, align 8
  %6 = getelementptr inbounds nuw %"class.pxrInternal_v0_24__pxrReserved__::GfMatrixData", ptr %5, i32 0, i32 0
  %7 = getelementptr inbounds [16 x double], ptr %6, i64 0, i64 0
  %8 = load i32, ptr %4, align 4
  %9 = mul nsw i32 %8, 4
  %10 = sext i32 %9 to i64
  %11 = getelementptr inbounds double, ptr %7, i64 %10
  ret ptr %11
}

; Function Attrs: mustprogress uwtable
define noundef ptr @_ZNK32pxrInternal_v0_24__pxrReserved__10GfMatrix4d3GetEPA4_d(ptr noundef nonnull align 8 dereferenceable(128) %0, ptr noundef %1) #0 align 2 {
  %3 = alloca ptr, align 8
  %4 = alloca ptr, align 8
  store ptr %0, ptr %3, align 8
  store ptr %1, ptr %4, align 8
  %5 = load ptr, ptr %3, align 8
  %6 = getelementptr inbounds nuw %"class.pxrInternal_v0_24__pxrReserved__::GfMatrix4d", ptr %5, i32 0, i32 0
  %7 = call noundef ptr @_ZNK32pxrInternal_v0_24__pxrReserved__12GfMatrixDataIdLi4ELi4EEixEi(ptr noundef nonnull align 8 dereferenceable(128) %6, i32 noundef 0)
  %8 = getelementptr inbounds double, ptr %7, i64 0
  %9 = load double, ptr %8, align 8
  %10 = load ptr, ptr %4, align 8
  %11 = getelementptr inbounds [4 x double], ptr %10, i64 0
  %12 = getelementptr inbounds [4 x double], ptr %11, i64 0, i64 0
  store double %9, ptr %12, align 8
  %13 = getelementptr inbounds nuw %"class.pxrInternal_v0_24__pxrReserved__::GfMatrix4d", ptr %5, i32 0, i32 0
  %14 = call noundef ptr @_ZNK32pxrInternal_v0_24__pxrReserved__12GfMatrixDataIdLi4ELi4EEixEi(ptr noundef nonnull align 8 dereferenceable(128) %13, i32 noundef 0)
  %15 = getelementptr inbounds double, ptr %14, i64 1
  %16 = load double, ptr %15, align 8
  %17 = load ptr, ptr %4, align 8
  %18 = getelementptr inbounds [4 x double], ptr %17, i64 0
  %19 = getelementptr inbounds [4 x double], ptr %18, i64 0, i64 1
  store double %16, ptr %19, align 8
  %20 = getelementptr inbounds nuw %"class.pxrInternal_v0_24__pxrReserved__::GfMatrix4d", ptr %5, i32 0, i32 0
  %21 = call noundef ptr @_ZNK32pxrInternal_v0_24__pxrReserved__12GfMatrixDataIdLi4ELi4EEixEi(ptr noundef nonnull align 8 dereferenceable(128) %20, i32 noundef 0)
  %22 = getelementptr inbounds double, ptr %21, i64 2
  %23 = load double, ptr %22, align 8
  %24 = load ptr, ptr %4, align 8
  %25 = getelementptr inbounds [4 x double], ptr %24, i64 0
  %26 = getelementptr inbounds [4 x double], ptr %25, i64 0, i64 2
  store double %23, ptr %26, align 8
  %27 = getelementptr inbounds nuw %"class.pxrInternal_v0_24__pxrReserved__::GfMatrix4d", ptr %5, i32 0, i32 0
  %28 = call noundef ptr @_ZNK32pxrInternal_v0_24__pxrReserved__12GfMatrixDataIdLi4ELi4EEixEi(ptr noundef nonnull align 8 dereferenceable(128) %27, i32 noundef 0)
  %29 = getelementptr inbounds double, ptr %28, i64 3
  %30 = load double, ptr %29, align 8
  %31 = load ptr, ptr %4, align 8
  %32 = getelementptr inbounds [4 x double], ptr %31, i64 0
  %33 = getelementptr inbounds [4 x double], ptr %32, i64 0, i64 3
  store double %30, ptr %33, align 8
  %34 = getelementptr inbounds nuw %"class.pxrInternal_v0_24__pxrReserved__::GfMatrix4d", ptr %5, i32 0, i32 0
  %35 = call noundef ptr @_ZNK32pxrInternal_v0_24__pxrReserved__12GfMatrixDataIdLi4ELi4EEixEi(ptr noundef nonnull align 8 dereferenceable(128) %34, i32 noundef 1)
  %36 = getelementptr inbounds double, ptr %35, i64 0
  %37 = load double, ptr %36, align 8
  %38 = load ptr, ptr %4, align 8
  %39 = getelementptr inbounds [4 x double], ptr %38, i64 1
  %40 = getelementptr inbounds [4 x double], ptr %39, i64 0, i64 0
  store double %37, ptr %40, align 8
  %41 = getelementptr inbounds nuw %"class.pxrInternal_v0_24__pxrReserved__::GfMatrix4d", ptr %5, i32 0, i32 0
  %42 = call noundef ptr @_ZNK32pxrInternal_v0_24__pxrReserved__12GfMatrixDataIdLi4ELi4EEixEi(ptr noundef nonnull align 8 dereferenceable(128) %41, i32 noundef 1)
  %43 = getelementptr inbounds double, ptr %42, i64 1
  %44 = load double, ptr %43, align 8
  %45 = load ptr, ptr %4, align 8
  %46 = getelementptr inbounds [4 x double], ptr %45, i64 1
  %47 = getelementptr inbounds [4 x double], ptr %46, i64 0, i64 1
  store double %44, ptr %47, align 8
  %48 = getelementptr inbounds nuw %"class.pxrInternal_v0_24__pxrReserved__::GfMatrix4d", ptr %5, i32 0, i32 0
  %49 = call noundef ptr @_ZNK32pxrInternal_v0_24__pxrReserved__12GfMatrixDataIdLi4ELi4EEixEi(ptr noundef nonnull align 8 dereferenceable(128) %48, i32 noundef 1)
  %50 = getelementptr inbounds double, ptr %49, i64 2
  %51 = load double, ptr %50, align 8
  %52 = load ptr, ptr %4, align 8
  %53 = getelementptr inbounds [4 x double], ptr %52, i64 1
  %54 = getelementptr inbounds [4 x double], ptr %53, i64 0, i64 2
  store double %51, ptr %54, align 8
  %55 = getelementptr inbounds nuw %"class.pxrInternal_v0_24__pxrReserved__::GfMatrix4d", ptr %5, i32 0, i32 0
  %56 = call noundef ptr @_ZNK32pxrInternal_v0_24__pxrReserved__12GfMatrixDataIdLi4ELi4EEixEi(ptr noundef nonnull align 8 dereferenceable(128) %55, i32 noundef 1)
  %57 = getelementptr inbounds double, ptr %56, i64 3
  %58 = load double, ptr %57, align 8
  %59 = load ptr, ptr %4, align 8
  %60 = getelementptr inbounds [4 x double], ptr %59, i64 1
  %61 = getelementptr inbounds [4 x double], ptr %60, i64 0, i64 3
  store double %58, ptr %61, align 8
  %62 = getelementptr inbounds nuw %"class.pxrInternal_v0_24__pxrReserved__::GfMatrix4d", ptr %5, i32 0, i32 0
  %63 = call noundef ptr @_ZNK32pxrInternal_v0_24__pxrReserved__12GfMatrixDataIdLi4ELi4EEixEi(ptr noundef nonnull align 8 dereferenceable(128) %62, i32 noundef 2)
  %64 = getelementptr inbounds double, ptr %63, i64 0
  %65 = load double, ptr %64, align 8
  %66 = load ptr, ptr %4, align 8
  %67 = getelementptr inbounds [4 x double], ptr %66, i64 2
  %68 = getelementptr inbounds [4 x double], ptr %67, i64 0, i64 0
  store double %65, ptr %68, align 8
  %69 = getelementptr inbounds nuw %"class.pxrInternal_v0_24__pxrReserved__::GfMatrix4d", ptr %5, i32 0, i32 0
  %70 = call noundef ptr @_ZNK32pxrInternal_v0_24__pxrReserved__12GfMatrixDataIdLi4ELi4EEixEi(ptr noundef nonnull align 8 dereferenceable(128) %69, i32 noundef 2)
  %71 = getelementptr inbounds double, ptr %70, i64 1
  %72 = load double, ptr %71, align 8
  %73 = load ptr, ptr %4, align 8
  %74 = getelementptr inbounds [4 x double], ptr %73, i64 2
  %75 = getelementptr inbounds [4 x double], ptr %74, i64 0, i64 1
  store double %72, ptr %75, align 8
  %76 = getelementptr inbounds nuw %"class.pxrInternal_v0_24__pxrReserved__::GfMatrix4d", ptr %5, i32 0, i32 0
  %77 = call noundef ptr @_ZNK32pxrInternal_v0_24__pxrReserved__12GfMatrixDataIdLi4ELi4EEixEi(ptr noundef nonnull align 8 dereferenceable(128) %76, i32 noundef 2)
  %78 = getelementptr inbounds double, ptr %77, i64 2
  %79 = load double, ptr %78, align 8
  %80 = load ptr, ptr %4, align 8
  %81 = getelementptr inbounds [4 x double], ptr %80, i64 2
  %82 = getelementptr inbounds [4 x double], ptr %81, i64 0, i64 2
  store double %79, ptr %82, align 8
  %83 = getelementptr inbounds nuw %"class.pxrInternal_v0_24__pxrReserved__::GfMatrix4d", ptr %5, i32 0, i32 0
  %84 = call noundef ptr @_ZNK32pxrInternal_v0_24__pxrReserved__12GfMatrixDataIdLi4ELi4EEixEi(ptr noundef nonnull align 8 dereferenceable(128) %83, i32 noundef 2)
  %85 = getelementptr inbounds double, ptr %84, i64 3
  %86 = load double, ptr %85, align 8
  %87 = load ptr, ptr %4, align 8
  %88 = getelementptr inbounds [4 x double], ptr %87, i64 2
  %89 = getelementptr inbounds [4 x double], ptr %88, i64 0, i64 3
  store double %86, ptr %89, align 8
  %90 = getelementptr inbounds nuw %"class.pxrInternal_v0_24__pxrReserved__::GfMatrix4d", ptr %5, i32 0, i32 0
  %91 = call noundef ptr @_ZNK32pxrInternal_v0_24__pxrReserved__12GfMatrixDataIdLi4ELi4EEixEi(ptr noundef nonnull align 8 dereferenceable(128) %90, i32 noundef 3)
  %92 = getelementptr inbounds double, ptr %91, i64 0
  %93 = load double, ptr %92, align 8
  %94 = load ptr, ptr %4, align 8
  %95 = getelementptr inbounds [4 x double], ptr %94, i64 3
  %96 = getelementptr inbounds [4 x double], ptr %95, i64 0, i64 0
  store double %93, ptr %96, align 8
  %97 = getelementptr inbounds nuw %"class.pxrInternal_v0_24__pxrReserved__::GfMatrix4d", ptr %5, i32 0, i32 0
  %98 = call noundef ptr @_ZNK32pxrInternal_v0_24__pxrReserved__12GfMatrixDataIdLi4ELi4EEixEi(ptr noundef nonnull align 8 dereferenceable(128) %97, i32 noundef 3)
  %99 = getelementptr inbounds double, ptr %98, i64 1
  %100 = load double, ptr %99, align 8
  %101 = load ptr, ptr %4, align 8
  %102 = getelementptr inbounds [4 x double], ptr %101, i64 3
  %103 = getelementptr inbounds [4 x double], ptr %102, i64 0, i64 1
  store double %100, ptr %103, align 8
  %104 = getelementptr inbounds nuw %"class.pxrInternal_v0_24__pxrReserved__::GfMatrix4d", ptr %5, i32 0, i32 0
  %105 = call noundef ptr @_ZNK32pxrInternal_v0_24__pxrReserved__12GfMatrixDataIdLi4ELi4EEixEi(ptr noundef nonnull align 8 dereferenceable(128) %104, i32 noundef 3)
  %106 = getelementptr inbounds double, ptr %105, i64 2
  %107 = load double, ptr %106, align 8
  %108 = load ptr, ptr %4, align 8
  %109 = getelementptr inbounds [4 x double], ptr %108, i64 3
  %110 = getelementptr inbounds [4 x double], ptr %109, i64 0, i64 2
  store double %107, ptr %110, align 8
  %111 = getelementptr inbounds nuw %"class.pxrInternal_v0_24__pxrReserved__::GfMatrix4d", ptr %5, i32 0, i32 0
  %112 = call noundef ptr @_ZNK32pxrInternal_v0_24__pxrReserved__12GfMatrixDataIdLi4ELi4EEixEi(ptr noundef nonnull align 8 dereferenceable(128) %111, i32 noundef 3)
  %113 = getelementptr inbounds double, ptr %112, i64 3
  %114 = load double, ptr %113, align 8
  %115 = load ptr, ptr %4, align 8
  %116 = getelementptr inbounds [4 x double], ptr %115, i64 3
  %117 = getelementptr inbounds [4 x double], ptr %116, i64 0, i64 3
  store double %114, ptr %117, align 8
  %118 = load ptr, ptr %4, align 8
  %119 = getelementptr inbounds [4 x double], ptr %118, i64 0
  %120 = getelementptr inbounds [4 x double], ptr %119, i64 0, i64 0
  ret ptr %120
}