; Function Attrs: mustprogress nofree norecurse nosync nounwind willreturn memory(argmem: readwrite) uwtable
define noundef ptr @_ZNK32pxrInternal_v0_24__pxrReserved__10GfMatrix4d3GetEPA4_d(ptr nocapture noundef nonnull readonly align 8 dereferenceable(128) %0, ptr noundef returned writeonly %1) local_unnamed_addr #2 align 2 {
  %3 = load double, ptr %0, align 8
  store double %3, ptr %1, align 8
  %4 = getelementptr inbounds i8, ptr %0, i64 8
  %5 = load double, ptr %4, align 8
  %6 = getelementptr inbounds i8, ptr %1, i64 8
  store double %5, ptr %6, align 8
  %7 = getelementptr inbounds i8, ptr %0, i64 16
  %8 = load double, ptr %7, align 8
  %9 = getelementptr inbounds i8, ptr %1, i64 16
  store double %8, ptr %9, align 8
  %10 = getelementptr inbounds i8, ptr %0, i64 24
  %11 = load double, ptr %10, align 8
  %12 = getelementptr inbounds i8, ptr %1, i64 24
  store double %11, ptr %12, align 8
  %13 = getelementptr inbounds i8, ptr %0, i64 32
  %14 = load double, ptr %13, align 8
  %15 = getelementptr inbounds i8, ptr %1, i64 32
  store double %14, ptr %15, align 8
  %16 = getelementptr inbounds i8, ptr %0, i64 40
  %17 = load double, ptr %16, align 8
  %18 = getelementptr inbounds i8, ptr %1, i64 40
  store double %17, ptr %18, align 8
  %19 = getelementptr inbounds i8, ptr %0, i64 48
  %20 = load double, ptr %19, align 8
  %21 = getelementptr inbounds i8, ptr %1, i64 48
  store double %20, ptr %21, align 8
  %22 = getelementptr inbounds i8, ptr %0, i64 56
  %23 = load double, ptr %22, align 8
  %24 = getelementptr inbounds i8, ptr %1, i64 56
  store double %23, ptr %24, align 8
  %25 = getelementptr inbounds i8, ptr %0, i64 64
  %26 = load double, ptr %25, align 8
  %27 = getelementptr inbounds i8, ptr %1, i64 64
  store double %26, ptr %27, align 8
  %28 = getelementptr inbounds i8, ptr %0, i64 72
  %29 = load double, ptr %28, align 8
  %30 = getelementptr inbounds i8, ptr %1, i64 72
  store double %29, ptr %30, align 8
  %31 = getelementptr inbounds i8, ptr %0, i64 80
  %32 = load double, ptr %31, align 8
  %33 = getelementptr inbounds i8, ptr %1, i64 80
  store double %32, ptr %33, align 8
  %34 = getelementptr inbounds i8, ptr %0, i64 88
  %35 = load double, ptr %34, align 8
  %36 = getelementptr inbounds i8, ptr %1, i64 88
  store double %35, ptr %36, align 8
  %37 = getelementptr inbounds i8, ptr %0, i64 96
  %38 = load double, ptr %37, align 8
  %39 = getelementptr inbounds i8, ptr %1, i64 96
  store double %38, ptr %39, align 8
  %40 = getelementptr inbounds i8, ptr %0, i64 104
  %41 = load double, ptr %40, align 8
  %42 = getelementptr inbounds i8, ptr %1, i64 104
  store double %41, ptr %42, align 8
  %43 = getelementptr inbounds i8, ptr %0, i64 112
  %44 = load double, ptr %43, align 8
  %45 = getelementptr inbounds i8, ptr %1, i64 112
  store double %44, ptr %45, align 8
  %46 = getelementptr inbounds i8, ptr %0, i64 120
  %47 = load double, ptr %46, align 8
  %48 = getelementptr inbounds i8, ptr %1, i64 120
  store double %47, ptr %48, align 8
  ret ptr %1
}